target datalayout = "e-m:e-p270:32:32-p271:32:32-p272:64:64-i64:64-i128:128-f80:128-n8:16:32:64-S128"
target triple = "x86_64-pc-linux-gnu"

%struct._zval_struct = type { %union._zend_value, %union.anon, %union.anon.2 }
%union._zend_value = type { i64 }
%union.anon = type { i32 }
%union.anon.2 = type { i32 }
%struct.anon.0 = type { i8, i8, %union.anon.1 }
%union.anon.1 = type { i16 }

; Function Attrs: alwaysinline nounwind uwtable
define internal zeroext i8 @zval_get_type(ptr noundef %0) #1 {
  %2 = alloca ptr, align 8
  store ptr %0, ptr %2, align 8, !tbaa !12
  %3 = load ptr, ptr %2, align 8, !tbaa !12
  %4 = getelementptr inbounds nuw %struct._zval_struct, ptr %3, i32 0, i32 1
  %5 = getelementptr inbounds nuw %struct.anon.0, ptr %4, i32 0, i32 0
  %6 = load i8, ptr %5, align 8, !tbaa !11
  ret i8 %6
}

; Function Attrs: alwaysinline nounwind uwtable
define internal double @zval_get_double(ptr noundef %0) #1 {
  %2 = alloca ptr, align 8
  store ptr %0, ptr %2, align 8, !tbaa !12
  %3 = load ptr, ptr %2, align 8, !tbaa !12
  %4 = call zeroext i8 @zval_get_type(ptr noundef %3)
  %5 = zext i8 %4 to i32
  %6 = icmp eq i32 %5, 5
  %7 = xor i1 %6, true
  %8 = xor i1 %7, true
  %9 = zext i1 %8 to i32
  %10 = sext i32 %9 to i64
  %11 = call i64 @llvm.expect.i64(i64 %10, i64 1)
  %12 = icmp ne i64 %11, 0
  br i1 %12, label %13, label %17

13:                                               ; preds = %1
  %14 = load ptr, ptr %2, align 8, !tbaa !12
  %15 = getelementptr inbounds nuw %struct._zval_struct, ptr %14, i32 0, i32 0
  %16 = load double, ptr %15, align 8, !tbaa !11
  br label %20

17:                                               ; preds = %1
  %18 = load ptr, ptr %2, align 8, !tbaa !12
  %19 = call double @zval_get_double_func(ptr noundef %18)
  br label %20

20:                                               ; preds = %17, %13
  %21 = phi double [ %16, %13 ], [ %19, %17 ]
  ret double %21
}

; Function Attrs: nounwind uwtable
define dso_local i32 @numeric_compare_function(ptr noundef %0, ptr noundef %1) #0 {
  %3 = alloca ptr, align 8
  %4 = alloca ptr, align 8
  %5 = alloca double, align 8
  %6 = alloca double, align 8
  store ptr %0, ptr %3, align 8, !tbaa !12
  store ptr %1, ptr %4, align 8, !tbaa !12
  call void @llvm.lifetime.start.p0(i64 8, ptr %5) #20
  call void @llvm.lifetime.start.p0(i64 8, ptr %6) #20
  %7 = load ptr, ptr %3, align 8, !tbaa !12
  %8 = call double @zval_get_double(ptr noundef %7)
  store double %8, ptr %5, align 8, !tbaa !57
  %9 = load ptr, ptr %4, align 8, !tbaa !12
  %10 = call double @zval_get_double(ptr noundef %9)
  store double %10, ptr %6, align 8, !tbaa !57
  %11 = load double, ptr %5, align 8, !tbaa !57
  %12 = load double, ptr %6, align 8, !tbaa !57
  %13 = fcmp oeq double %11, %12
  br i1 %13, label %14, label %15

14:                                               ; preds = %2
  br label %20

15:                                               ; preds = %2
  %16 = load double, ptr %5, align 8, !tbaa !57
  %17 = load double, ptr %6, align 8, !tbaa !57
  %18 = fcmp olt double %16, %17
  %19 = select i1 %18, i32 -1, i32 1
  br label %20

20:                                               ; preds = %15, %14
  %21 = phi i32 [ 0, %14 ], [ %19, %15 ]
  call void @llvm.lifetime.end.p0(i64 8, ptr %6) #20
  call void @llvm.lifetime.end.p0(i64 8, ptr %5) #20
  ret i32 %21
}