; Function Attrs: nounwind uwtable
define dso_local range(i32 -1, 2) i32 @numeric_compare_function(ptr noundef readonly captures(none) %0, ptr noundef readonly captures(none) %1) local_unnamed_addr #1 {
  %3 = getelementptr inbounds nuw i8, ptr %0, i64 8
  %4 = load i8, ptr %3, align 8, !tbaa !4
  %5 = icmp eq i8 %4, 5
  br i1 %5, label %6, label %8, !prof !38

6:                                                ; preds = %2
  %7 = load double, ptr %0, align 8, !tbaa !4
  br label %zval_get_double.exit

8:                                                ; preds = %2
  %9 = tail call double @zval_get_double_func(ptr noundef nonnull %0)
  br label %zval_get_double.exit

zval_get_double.exit:                             ; preds = %6, %8
  %10 = phi double [ %7, %6 ], [ %9, %8 ]
  %11 = getelementptr inbounds nuw i8, ptr %1, i64 8
  %12 = load i8, ptr %11, align 8, !tbaa !4
  %13 = icmp eq i8 %12, 5
  br i1 %13, label %14, label %16, !prof !38

14:                                               ; preds = %zval_get_double.exit
  %15 = load double, ptr %1, align 8, !tbaa !4
  br label %zval_get_double.exit6

16:                                               ; preds = %zval_get_double.exit
  %17 = tail call double @zval_get_double_func(ptr noundef nonnull %1)
  br label %zval_get_double.exit6

zval_get_double.exit6:                            ; preds = %14, %16
  %18 = phi double [ %15, %14 ], [ %17, %16 ]
  %19 = fcmp oeq double %10, %18
  %20 = fcmp olt double %10, %18
  %21 = select i1 %20, i32 -1, i32 1
  %22 = select i1 %19, i32 0, i32 %21
  ret i32 %22
}